target datalayout = "e-m:e-p270:32:32-p271:32:32-p272:64:64-i64:64-i128:128-f80:128-n8:16:32:64-S128"
target triple = "x86_64-pc-linux-gnu"

%struct.Vec_Int_t_ = type { i32, i32, ptr }

; Function Attrs: inlinehint nounwind uwtable
define internal void @Vec_IntWriteEntry(ptr noundef %0, i32 noundef %1, i32 noundef %2) #2 {
  %4 = alloca ptr, align 8
  %5 = alloca i32, align 4
  %6 = alloca i32, align 4
  store ptr %0, ptr %4, align 8, !tbaa !31
  store i32 %1, ptr %5, align 4, !tbaa !8
  store i32 %2, ptr %6, align 4, !tbaa !8
  %7 = load i32, ptr %6, align 4, !tbaa !8
  %8 = load ptr, ptr %4, align 8, !tbaa !31
  %9 = getelementptr inbounds nuw %struct.Vec_Int_t_, ptr %8, i32 0, i32 2
  %10 = load ptr, ptr %9, align 8, !tbaa !35
  %11 = load i32, ptr %5, align 4, !tbaa !8
  %12 = sext i32 %11 to i64
  %13 = getelementptr inbounds i32, ptr %10, i64 %12
  store i32 %7, ptr %13, align 4, !tbaa !8
  ret void
}

; Function Attrs: inlinehint nounwind uwtable
define internal i32 @Vec_IntEntry(ptr noundef %0, i32 noundef %1) #2 {
  %3 = alloca ptr, align 8
  %4 = alloca i32, align 4
  store ptr %0, ptr %3, align 8, !tbaa !31
  store i32 %1, ptr %4, align 4, !tbaa !8
  %5 = load ptr, ptr %3, align 8, !tbaa !31
  %6 = getelementptr inbounds nuw %struct.Vec_Int_t_, ptr %5, i32 0, i32 2
  %7 = load ptr, ptr %6, align 8, !tbaa !35
  %8 = load i32, ptr %4, align 4, !tbaa !8
  %9 = sext i32 %8 to i64
  %10 = getelementptr inbounds i32, ptr %7, i64 %9
  %11 = load i32, ptr %10, align 4, !tbaa !8
  ret i32 %11
}

; Function Attrs: inlinehint nounwind uwtable
define internal i32 @Vec_IntSize(ptr noundef %0) #2 {
  %2 = alloca ptr, align 8
  store ptr %0, ptr %2, align 8, !tbaa !31
  %3 = load ptr, ptr %2, align 8, !tbaa !31
  %4 = getelementptr inbounds nuw %struct.Vec_Int_t_, ptr %3, i32 0, i32 1
  %5 = load i32, ptr %4, align 4, !tbaa !33
  ret i32 %5
}

; Function Attrs: nounwind uwtable
define i32 @Wlc_NtkMuxTree3(ptr noundef %0, ptr noundef %1, ptr noundef %2, ptr noundef %3) #0 {
  %5 = alloca ptr, align 8
  %6 = alloca ptr, align 8
  %7 = alloca ptr, align 8
  %8 = alloca ptr, align 8
  %9 = alloca i32, align 4
  %10 = alloca i32, align 4
  %11 = alloca i32, align 4
  %12 = alloca i32, align 4
  %13 = alloca i32, align 4
  %14 = alloca i32, align 4
  %15 = alloca ptr, align 8
  store ptr %0, ptr %5, align 8, !tbaa !38
  store ptr %1, ptr %6, align 8, !tbaa !31
  store ptr %2, ptr %7, align 8, !tbaa !42
  store ptr %3, ptr %8, align 8, !tbaa !43
  call void @llvm.lifetime.start.p0(i64 4, ptr %9) #12
  call void @llvm.lifetime.start.p0(i64 4, ptr %10) #12
  store i32 0, ptr %10, align 4, !tbaa !8
  call void @llvm.lifetime.start.p0(i64 4, ptr %11) #12
  %16 = load ptr, ptr %6, align 8, !tbaa !31
  %17 = call i32 @Vec_IntSize(ptr noundef %16)
  store i32 %17, ptr %11, align 4, !tbaa !8
  %18 = load ptr, ptr %7, align 8, !tbaa !42
  %19 = call i64 @strlen(ptr noundef %18) #13
  %20 = trunc i64 %19 to i32
  %21 = sub nsw i32 %20, 1
  store i32 %21, ptr %9, align 4, !tbaa !8
  br label %22

22:                                               ; preds = %97, %4
  %23 = load i32, ptr %9, align 4, !tbaa !8
  %24 = icmp sge i32 %23, 0
  br i1 %24, label %25, label %100

25:                                               ; preds = %22
  call void @llvm.lifetime.start.p0(i64 4, ptr %12) #12
  call void @llvm.lifetime.start.p0(i64 4, ptr %13) #12
  call void @llvm.lifetime.start.p0(i64 4, ptr %14) #12
  %26 = load ptr, ptr %7, align 8, !tbaa !42
  %27 = load i32, ptr %9, align 4, !tbaa !8
  %28 = sext i32 %27 to i64
  %29 = getelementptr inbounds i8, ptr %26, i64 %28
  %30 = load i8, ptr %29, align 1, !tbaa !45
  %31 = sext i8 %30 to i32
  %32 = sub nsw i32 %31, 48
  store i32 %32, ptr %14, align 4, !tbaa !8
  call void @llvm.lifetime.start.p0(i64 8, ptr %15) #12
  %33 = load ptr, ptr %8, align 8, !tbaa !43
  %34 = load i32, ptr %9, align 4, !tbaa !8
  %35 = sext i32 %34 to i64
  %36 = getelementptr inbounds ptr, ptr %33, i64 %35
  %37 = load ptr, ptr %36, align 8, !tbaa !31
  store ptr %37, ptr %15, align 8, !tbaa !31
  store i32 0, ptr %12, align 4, !tbaa !8
  br label %38

38:                                               ; preds = %56, %25
  %39 = load i32, ptr %12, align 4, !tbaa !8
  %40 = load i32, ptr %11, align 4, !tbaa !8
  %41 = icmp slt i32 %39, %40
  br i1 %41, label %42, label %59

42:                                               ; preds = %38
  %43 = load ptr, ptr %6, align 8, !tbaa !31
  %44 = load i32, ptr %12, align 4, !tbaa !8
  %45 = load ptr, ptr %5, align 8, !tbaa !38
  %46 = load ptr, ptr %6, align 8, !tbaa !31
  %47 = load i32, ptr %12, align 4, !tbaa !8
  %48 = call i32 @Vec_IntEntry(ptr noundef %46, i32 noundef %47)
  %49 = load ptr, ptr %15, align 8, !tbaa !31
  %50 = load i32, ptr %12, align 4, !tbaa !8
  %51 = load ptr, ptr %15, align 8, !tbaa !31
  %52 = call i32 @Vec_IntSize(ptr noundef %51)
  %53 = srem i32 %50, %52
  %54 = call i32 @Vec_IntEntry(ptr noundef %49, i32 noundef %53)
  %55 = call i32 @Gia_ManHashAnd(ptr noundef %45, i32 noundef %48, i32 noundef %54)
  call void @Vec_IntWriteEntry(ptr noundef %43, i32 noundef %44, i32 noundef %55)
  br label %56

56:                                               ; preds = %42
  %57 = load i32, ptr %12, align 4, !tbaa !8
  %58 = add nsw i32 %57, 1
  store i32 %58, ptr %12, align 4, !tbaa !8
  br label %38, !llvm.loop !46

59:                                               ; preds = %38
  store i32 0, ptr %13, align 4, !tbaa !8
  br label %60

60:                                               ; preds = %88, %59
  %61 = load i32, ptr %13, align 4, !tbaa !8
  %62 = load i32, ptr %14, align 4, !tbaa !8
  %63 = icmp slt i32 %61, %62
  br i1 %63, label %64, label %93

64:                                               ; preds = %60
  store i32 0, ptr %12, align 4, !tbaa !8
  br label %65

65:                                               ; preds = %84, %64
  %66 = load i32, ptr %12, align 4, !tbaa !8
  %67 = load i32, ptr %11, align 4, !tbaa !8
  %68 = sdiv i32 %67, 2
  %69 = icmp slt i32 %66, %68
  br i1 %69, label %70, label %87

70:                                               ; preds = %65
  %71 = load ptr, ptr %6, align 8, !tbaa !31
  %72 = load i32, ptr %12, align 4, !tbaa !8
  %73 = load ptr, ptr %5, align 8, !tbaa !38
  %74 = load ptr, ptr %6, align 8, !tbaa !31
  %75 = load i32, ptr %12, align 4, !tbaa !8
  %76 = mul nsw i32 2, %75
  %77 = call i32 @Vec_IntEntry(ptr noundef %74, i32 noundef %76)
  %78 = load ptr, ptr %6, align 8, !tbaa !31
  %79 = load i32, ptr %12, align 4, !tbaa !8
  %80 = mul nsw i32 2, %79
  %81 = add nsw i32 %80, 1
  %82 = call i32 @Vec_IntEntry(ptr noundef %78, i32 noundef %81)
  %83 = call i32 @Gia_ManHashOr(ptr noundef %73, i32 noundef %77, i32 noundef %82)
  call void @Vec_IntWriteEntry(ptr noundef %71, i32 noundef %72, i32 noundef %83)
  br label %84

84:                                               ; preds = %70
  %85 = load i32, ptr %12, align 4, !tbaa !8
  %86 = add nsw i32 %85, 1
  store i32 %86, ptr %12, align 4, !tbaa !8
  br label %65, !llvm.loop !47

87:                                               ; preds = %65
  br label %88

88:                                               ; preds = %87
  %89 = load i32, ptr %13, align 4, !tbaa !8
  %90 = add nsw i32 %89, 1
  store i32 %90, ptr %13, align 4, !tbaa !8
  %91 = load i32, ptr %11, align 4, !tbaa !8
  %92 = sdiv i32 %91, 2
  store i32 %92, ptr %11, align 4, !tbaa !8
  br label %60, !llvm.loop !48

93:                                               ; preds = %60
  %94 = load i32, ptr %14, align 4, !tbaa !8
  %95 = load i32, ptr %10, align 4, !tbaa !8
  %96 = add nsw i32 %95, %94
  store i32 %96, ptr %10, align 4, !tbaa !8
  call void @llvm.lifetime.end.p0(i64 8, ptr %15) #12
  call void @llvm.lifetime.end.p0(i64 4, ptr %14) #12
  call void @llvm.lifetime.end.p0(i64 4, ptr %13) #12
  call void @llvm.lifetime.end.p0(i64 4, ptr %12) #12
  br label %97

97:                                               ; preds = %93
  %98 = load i32, ptr %9, align 4, !tbaa !8
  %99 = add nsw i32 %98, -1
  store i32 %99, ptr %9, align 4, !tbaa !8
  br label %22, !llvm.loop !49

100:                                              ; preds = %22
  %101 = load ptr, ptr %6, align 8, !tbaa !31
  %102 = call i32 @Vec_IntEntry(ptr noundef %101, i32 noundef 0)
  call void @llvm.lifetime.end.p0(i64 4, ptr %11) #12
  call void @llvm.lifetime.end.p0(i64 4, ptr %10) #12
  call void @llvm.lifetime.end.p0(i64 4, ptr %9) #12
  ret i32 %102
}