; Function Attrs: nounwind uwtable
define i32 @Wlc_NtkMuxTree3(ptr noundef %0, ptr noundef readonly captures(none) %1, ptr noundef readonly captures(none) %2, ptr noundef readonly captures(none) %3) local_unnamed_addr #2 {
  %5 = tail call i64 @strlen(ptr noundef nonnull dereferenceable(1) %2) #24
  %6 = trunc i64 %5 to i32
  %7 = icmp sgt i32 %6, 0
  br i1 %7, label %.lr.ph60, label %._crit_edge61

.lr.ph60:                                         ; preds = %4
  %8 = getelementptr i8, ptr %1, i64 4
  %.val49 = load i32, ptr %8, align 4, !tbaa !23
  %9 = getelementptr i8, ptr %1, i64 8
  %10 = and i64 %5, 2147483647
  br label %12

.loopexit:                                        ; preds = %._crit_edge, %.preheader50
  %.139.lcssa = phi i32 [ %.03857, %.preheader50 ], [ %32, %._crit_edge ]
  %11 = icmp sgt i64 %indvars.iv69, 1
  br i1 %11, label %12, label %._crit_edge61, !llvm.loop !35

12:                                               ; preds = %.lr.ph60, %.loopexit
  %indvars.iv69 = phi i64 [ %10, %.lr.ph60 ], [ %indvars.iv.next70, %.loopexit ]
  %.03857 = phi i32 [ %.val49, %.lr.ph60 ], [ %.139.lcssa, %.loopexit ]
  %indvars.iv.next70 = add nsw i64 %indvars.iv69, -1
  %13 = getelementptr inbounds nuw i8, ptr %2, i64 %indvars.iv.next70
  %14 = load i8, ptr %13, align 1, !tbaa !36
  %15 = icmp sgt i32 %.03857, 0
  br i1 %15, label %.lr.ph, label %.preheader50

.lr.ph:                                           ; preds = %12
  %16 = getelementptr inbounds nuw ptr, ptr %3, i64 %indvars.iv.next70
  %17 = load ptr, ptr %16, align 8, !tbaa !37
  %18 = getelementptr i8, ptr %17, i64 4
  %19 = getelementptr i8, ptr %17, i64 8
  %wide.trip.count = zext nneg i32 %.03857 to i64
  %.val47.pre = load ptr, ptr %9, align 8, !tbaa !22
  br label %22

.preheader50:                                     ; preds = %22, %12
  %20 = icmp sgt i8 %14, 48
  br i1 %20, label %.preheader.preheader, label %.loopexit

.preheader.preheader:                             ; preds = %.preheader50
  %narrow = add nsw i8 %14, -49
  %21 = sext i8 %narrow to i32
  br label %.preheader

22:                                               ; preds = %.lr.ph, %22
  %.val47 = phi ptr [ %.val47.pre, %.lr.ph ], [ %.val, %22 ]
  %indvars.iv = phi i64 [ 0, %.lr.ph ], [ %indvars.iv.next, %22 ]
  %23 = getelementptr inbounds nuw i32, ptr %.val47, i64 %indvars.iv
  %24 = load i32, ptr %23, align 4, !tbaa !3
  %.val48 = load i32, ptr %18, align 4, !tbaa !23
  %25 = trunc nuw nsw i64 %indvars.iv to i32
  %26 = srem i32 %25, %.val48
  %.val46 = load ptr, ptr %19, align 8, !tbaa !22
  %27 = zext nneg i32 %26 to i64
  %28 = getelementptr inbounds nuw i32, ptr %.val46, i64 %27
  %29 = load i32, ptr %28, align 4, !tbaa !3
  %30 = tail call i32 @Gia_ManHashAnd(ptr noundef %0, i32 noundef %24, i32 noundef %29) #23
  %.val = load ptr, ptr %9, align 8, !tbaa !22
  %31 = getelementptr inbounds nuw i32, ptr %.val, i64 %indvars.iv
  store i32 %30, ptr %31, align 4, !tbaa !3
  %indvars.iv.next = add nuw nsw i64 %indvars.iv, 1
  %exitcond.not = icmp eq i64 %indvars.iv.next, %wide.trip.count
  br i1 %exitcond.not, label %.preheader50, label %22, !llvm.loop !38

.preheader:                                       ; preds = %.preheader.preheader, %._crit_edge
  %.03655 = phi i32 [ %42, %._crit_edge ], [ 0, %.preheader.preheader ]
  %.13954 = phi i32 [ %32, %._crit_edge ], [ %.03857, %.preheader.preheader ]
  %32 = sdiv i32 %.13954, 2
  %33 = icmp sgt i32 %.13954, 1
  br i1 %33, label %.lr.ph53.preheader, label %._crit_edge

.lr.ph53.preheader:                               ; preds = %.preheader
  %wide.trip.count66 = zext nneg i32 %32 to i64
  %.val45.pre = load ptr, ptr %9, align 8, !tbaa !22
  br label %.lr.ph53

.lr.ph53:                                         ; preds = %.lr.ph53.preheader, %.lr.ph53
  %.val45 = phi ptr [ %.val45.pre, %.lr.ph53.preheader ], [ %.val42, %.lr.ph53 ]
  %indvars.iv63 = phi i64 [ 0, %.lr.ph53.preheader ], [ %indvars.iv.next64, %.lr.ph53 ]
  %34 = shl nuw nsw i64 %indvars.iv63, 1
  %35 = getelementptr inbounds nuw i32, ptr %.val45, i64 %34
  %36 = load i32, ptr %35, align 4, !tbaa !3
  %37 = or disjoint i64 %34, 1
  %38 = getelementptr inbounds nuw i32, ptr %.val45, i64 %37
  %39 = load i32, ptr %38, align 4, !tbaa !3
  %40 = tail call i32 @Gia_ManHashOr(ptr noundef %0, i32 noundef %36, i32 noundef %39) #23
  %.val42 = load ptr, ptr %9, align 8, !tbaa !22
  %41 = getelementptr inbounds nuw i32, ptr %.val42, i64 %indvars.iv63
  store i32 %40, ptr %41, align 4, !tbaa !3
  %indvars.iv.next64 = add nuw nsw i64 %indvars.iv63, 1
  %exitcond67.not = icmp eq i64 %indvars.iv.next64, %wide.trip.count66
  br i1 %exitcond67.not, label %._crit_edge, label %.lr.ph53, !llvm.loop !39

._crit_edge:                                      ; preds = %.lr.ph53, %.preheader
  %42 = add nuw nsw i32 %.03655, 1
  %exitcond68.not = icmp eq i32 %.03655, %21
  br i1 %exitcond68.not, label %.loopexit, label %.preheader, !llvm.loop !40

._crit_edge61:                                    ; preds = %.loopexit, %4
  %43 = getelementptr i8, ptr %1, i64 8
  %.val43 = load ptr, ptr %43, align 8, !tbaa !22
  %44 = load i32, ptr %.val43, align 4, !tbaa !3
  ret i32 %44
}